; ModuleID = '44/1381.c'
source_filename = "44/1381.c"
target datalayout = "e-m:e-p270:32:32-p271:32:32-p272:64:64-i64:64-f80:128-n8:16:32:64-S128"
target triple = "x86_64-pc-linux-gnu"

@.str = private unnamed_addr constant [3 x i8] c"%d\00", align 1
@.str.1 = private unnamed_addr constant [5 x i8] c"-%d\0A\00", align 1
@.str.2 = private unnamed_addr constant [4 x i8] c"%d\0A\00", align 1

; Function Attrs: noinline nounwind uwtable
define dso_local i32 @main() #0 {
  %1 = alloca i32, align 4
  %2 = alloca i32, align 4
  %3 = alloca i32, align 4
  %4 = alloca i32, align 4
  %5 = alloca [6 x i32], align 16
  store i32 0, i32* %1, align 4
  store i32 0, i32* %4, align 4
  store i32 0, i32* %2, align 4
  br label %6

6:                                                ; preds = %14, %0
  %7 = load i32, i32* %2, align 4
  %8 = icmp slt i32 %7, 6
  br i1 %8, label %9, label %17

9:                                                ; preds = %6
  %10 = load i32, i32* %2, align 4
  %11 = sext i32 %10 to i64
  %12 = getelementptr inbounds [6 x i32], [6 x i32]* %5, i64 0, i64 %11
  %13 = call i32 (i8*, ...) @__isoc99_scanf(i8* getelementptr inbounds ([3 x i8], [3 x i8]* @.str, i64 0, i64 0), i32* %12)
  br label %14

14:                                               ; preds = %9
  %15 = load i32, i32* %2, align 4
  %16 = add nsw i32 %15, 1
  store i32 %16, i32* %2, align 4
  br label %6

17:                                               ; preds = %6
  store i32 0, i32* %2, align 4
  br label %18

18:                                               ; preds = %52, %17
  %19 = load i32, i32* %2, align 4
  %20 = icmp slt i32 %19, 6
  br i1 %20, label %21, label %55

21:                                               ; preds = %18
  %22 = load i32, i32* %2, align 4
  %23 = sext i32 %22 to i64
  %24 = getelementptr inbounds [6 x i32], [6 x i32]* %5, i64 0, i64 %23
  %25 = load i32, i32* %24, align 4
  %26 = icmp slt i32 %25, 0
  br i1 %26, label %27, label %43

27:                                               ; preds = %21
  %28 = load i32, i32* %2, align 4
  %29 = sext i32 %28 to i64
  %30 = getelementptr inbounds [6 x i32], [6 x i32]* %5, i64 0, i64 %29
  %31 = load i32, i32* %30, align 4
  %32 = sub nsw i32 0, %31
  %33 = load i32, i32* %2, align 4
  %34 = sext i32 %33 to i64
  %35 = getelementptr inbounds [6 x i32], [6 x i32]* %5, i64 0, i64 %34
  store i32 %32, i32* %35, align 4
  %36 = load i32, i32* %2, align 4
  %37 = sext i32 %36 to i64
  %38 = getelementptr inbounds [6 x i32], [6 x i32]* %5, i64 0, i64 %37
  %39 = load i32, i32* %38, align 4
  %40 = call i32 @reverse(i32 %39)
  store i32 %40, i32* %4, align 4
  %41 = load i32, i32* %4, align 4
  %42 = call i32 (i8*, ...) @printf(i8* getelementptr inbounds ([5 x i8], [5 x i8]* @.str.1, i64 0, i64 0), i32 %41)
  br label %51

43:                                               ; preds = %21
  %44 = load i32, i32* %2, align 4
  %45 = sext i32 %44 to i64
  %46 = getelementptr inbounds [6 x i32], [6 x i32]* %5, i64 0, i64 %45
  %47 = load i32, i32* %46, align 4
  %48 = call i32 @reverse(i32 %47)
  store i32 %48, i32* %4, align 4
  %49 = load i32, i32* %4, align 4
  %50 = call i32 (i8*, ...) @printf(i8* getelementptr inbounds ([4 x i8], [4 x i8]* @.str.2, i64 0, i64 0), i32 %49)
  br label %51

51:                                               ; preds = %43, %27
  br label %52

52:                                               ; preds = %51
  %53 = load i32, i32* %2, align 4
  %54 = add nsw i32 %53, 1
  store i32 %54, i32* %2, align 4
  br label %18

55:                                               ; preds = %18
  ret i32 0
}

declare dso_local i32 @__isoc99_scanf(i8*, ...) #1

; Function Attrs: noinline nounwind uwtable
define dso_local i32 @reverse(i32 %0) #0 {
  %2 = alloca i32, align 4
  %3 = alloca i32, align 4
  %4 = alloca i32, align 4
  store i32 %0, i32* %2, align 4
  store i32 0, i32* %3, align 4
  store i32 0, i32* %4, align 4
  br label %5

5:                                                ; preds = %17, %1
  %6 = load i32, i32* %2, align 4
  %7 = load i32, i32* %2, align 4
  %8 = sdiv i32 %7, 10
  %9 = mul nsw i32 %8, 10
  %10 = sub nsw i32 %6, %9
  store i32 %10, i32* %3, align 4
  %11 = load i32, i32* %2, align 4
  %12 = sdiv i32 %11, 10
  store i32 %12, i32* %2, align 4
  %13 = load i32, i32* %4, align 4
  %14 = mul nsw i32 %13, 10
  %15 = load i32, i32* %3, align 4
  %16 = add nsw i32 %14, %15
  store i32 %16, i32* %4, align 4
  br label %17

17:                                               ; preds = %5
  %18 = load i32, i32* %2, align 4
  %19 = icmp sge i32 %18, 1
  br i1 %19, label %5, label %20

20:                                               ; preds = %17
  %21 = load i32, i32* %4, align 4
  ret i32 %21
}

declare dso_local i32 @printf(i8*, ...) #1


!llvm.module.flags = !{!0}
!llvm.ident = !{!1}

!0 = !{i32 1, !"wchar_size", i32 4}
!1 = !{!"clang version 10.0.0-4ubuntu1 "}
